; Function Attrs: mustprogress nofree norecurse nosync nounwind sspstrong willreturn memory(argmem: read) uwtable
define dso_local noundef zeroext i1 @virtio_legacy_allowed(ptr noundef readonly captures(none) %vdev) local_unnamed_addr #4 {
entry:
  %device_id = getelementptr inbounds nuw i8, ptr %vdev, i64 432
  %0 = load i16, ptr %device_id, align 8
  %1 = icmp ult i16 %0, 13
  %switch.cast = trunc i16 %0 to i13
  %switch.downshift = lshr i13 -1090, %switch.cast
  %switch.masked = trunc i13 %switch.downshift to i1
  %retval.0 = select i1 %1, i1 %switch.masked, i1 false
  ret i1 %retval.0
}